target datalayout = "e-m:e-p270:32:32-p271:32:32-p272:64:64-i64:64-i128:128-f80:128-n8:16:32:64-S128"
target triple = "x86_64-pc-linux-gnu"

%union.wc_Hashes = type { %struct.wc_Sha3 }
%struct.wc_Sha3 = type { [25 x i64], [200 x i8], i8, ptr }
%struct.Hmac = type { %union.wc_Hashes, [36 x i32], [36 x i32], [16 x i32], ptr, i8, i8 }

@devId = internal global i32 -2, align 4
@__const.hmac_sha3_test.key = private unnamed_addr constant [4 x ptr] [ptr @.str.145, ptr @.str.156, ptr @.str.157, ptr @.str.180], align 16
@__const.hmac_sha3_test.input = private unnamed_addr constant [4 x ptr] [ptr @.str.150, ptr @.str.148, ptr @.str.152, ptr @.str.181], align 16
@__const.hmac_sha3_test.hashType = private unnamed_addr constant [4 x i32] [i32 10, i32 11, i32 12, i32 13], align 16
@__const.hmac_sha3_test.hashSz = private unnamed_addr constant [4 x i32] [i32 28, i32 32, i32 48, i32 64], align 16

; Function Attrs: nounwind uwtable
define dso_local i32 @hmac_sha3_test() #0 {
  %1 = alloca i32, align 4
  %2 = alloca %struct.Hmac, align 16
  %3 = alloca [64 x i8], align 16
  %4 = alloca [4 x ptr], align 16
  %5 = alloca [4 x ptr], align 16
  %6 = alloca [4 x i32], align 16
  %7 = alloca [4 x i32], align 16
  %8 = alloca [16 x ptr], align 16
  %9 = alloca i32, align 4
  %10 = alloca i32, align 4
  %11 = alloca i32, align 4
  %12 = alloca i32, align 4
  %13 = alloca i32, align 4
  %14 = alloca i32, align 4
  call void @llvm.lifetime.start.p0(i64 784, ptr %2) #10
  call void @llvm.lifetime.start.p0(i64 64, ptr %3) #10
  call void @llvm.lifetime.start.p0(i64 32, ptr %4) #10
  call void @llvm.memcpy.p0.p0.i64(ptr align 16 %4, ptr align 16 @__const.hmac_sha3_test.key, i64 32, i1 false)
  call void @llvm.lifetime.start.p0(i64 32, ptr %5) #10
  call void @llvm.memcpy.p0.p0.i64(ptr align 16 %5, ptr align 16 @__const.hmac_sha3_test.input, i64 32, i1 false)
  call void @llvm.lifetime.start.p0(i64 16, ptr %6) #10
  call void @llvm.memcpy.p0.p0.i64(ptr align 16 %6, ptr align 16 @__const.hmac_sha3_test.hashType, i64 16, i1 false)
  call void @llvm.lifetime.start.p0(i64 16, ptr %7) #10
  call void @llvm.memcpy.p0.p0.i64(ptr align 16 %7, ptr align 16 @__const.hmac_sha3_test.hashSz, i64 16, i1 false)
  call void @llvm.lifetime.start.p0(i64 128, ptr %8) #10
  call void @llvm.memcpy.p0.p0.i64(ptr align 16 %8, ptr align 16 @__const.hmac_sha3_test.output, i64 128, i1 false)
  call void @llvm.lifetime.start.p0(i64 4, ptr %9) #10
  store i32 0, ptr %9, align 4, !tbaa !14
  call void @llvm.lifetime.start.p0(i64 4, ptr %10) #10
  store i32 4, ptr %10, align 4, !tbaa !14
  call void @llvm.lifetime.start.p0(i64 4, ptr %11) #10
  call void @llvm.lifetime.start.p0(i64 4, ptr %12) #10
  store i32 4, ptr %12, align 4, !tbaa !14
  call void @llvm.lifetime.start.p0(i64 4, ptr %13) #10
  br label %15

15:                                               ; preds = %0
  br label %16

16:                                               ; preds = %15
  br label %17

17:                                               ; preds = %16
  br label %18

18:                                               ; preds = %167, %17
  %19 = load i32, ptr %9, align 4, !tbaa !14
  %20 = load i32, ptr %10, align 4, !tbaa !14
  %21 = icmp slt i32 %19, %20
  br i1 %21, label %22, label %170

22:                                               ; preds = %18
  store i32 0, ptr %11, align 4, !tbaa !14
  br label %23

23:                                               ; preds = %163, %22
  %24 = load i32, ptr %11, align 4, !tbaa !14
  %25 = load i32, ptr %12, align 4, !tbaa !14
  %26 = icmp slt i32 %24, %25
  br i1 %26, label %27, label %166

27:                                               ; preds = %23
  %28 = load i32, ptr @devId, align 4, !tbaa !14
  %29 = call i32 @wc_HmacInit(ptr noundef %2, ptr noundef null, i32 noundef %28)
  store i32 %29, ptr %13, align 4, !tbaa !14
  %30 = icmp ne i32 %29, 0
  br i1 %30, label %31, label %43

31:                                               ; preds = %27
  %32 = load i32, ptr %13, align 4, !tbaa !14
  %33 = sub nsw i32 0, %32
  %34 = zext i32 %33 to i64
  %35 = and i64 %34, 2047
  %36 = trunc i64 %35 to i32
  %37 = sext i32 %36 to i64
  %38 = mul nsw i64 %37, 100000
  %39 = add nsw i64 7194, %38
  %40 = add nsw i64 %39, 536870912
  %41 = sub nsw i64 0, %40
  %42 = trunc i64 %41 to i32
  store i32 %42, ptr %1, align 4
  store i32 1, ptr %14, align 4
  br label %171

43:                                               ; preds = %27
  %44 = load i32, ptr %11, align 4, !tbaa !14
  %45 = sext i32 %44 to i64
  %46 = getelementptr inbounds [4 x i32], ptr %6, i64 0, i64 %45
  %47 = load i32, ptr %46, align 4, !tbaa !14
  %48 = load i32, ptr %9, align 4, !tbaa !14
  %49 = sext i32 %48 to i64
  %50 = getelementptr inbounds [4 x ptr], ptr %4, i64 0, i64 %49
  %51 = load ptr, ptr %50, align 8, !tbaa !15
  %52 = load i32, ptr %9, align 4, !tbaa !14
  %53 = sext i32 %52 to i64
  %54 = getelementptr inbounds [4 x ptr], ptr %4, i64 0, i64 %53
  %55 = load ptr, ptr %54, align 8, !tbaa !15
  %56 = call i64 @strlen(ptr noundef %55) #11
  %57 = trunc i64 %56 to i32
  %58 = call i32 @wc_HmacSetKey(ptr noundef %2, i32 noundef %47, ptr noundef %51, i32 noundef %57)
  store i32 %58, ptr %13, align 4, !tbaa !14
  %59 = load i32, ptr %13, align 4, !tbaa !14
  %60 = icmp ne i32 %59, 0
  br i1 %60, label %61, label %73

61:                                               ; preds = %43
  %62 = load i32, ptr %13, align 4, !tbaa !14
  %63 = sub nsw i32 0, %62
  %64 = zext i32 %63 to i64
  %65 = and i64 %64, 2047
  %66 = trunc i64 %65 to i32
  %67 = sext i32 %66 to i64
  %68 = mul nsw i64 %67, 100000
  %69 = add nsw i64 7199, %68
  %70 = add nsw i64 %69, 536870912
  %71 = sub nsw i64 0, %70
  %72 = trunc i64 %71 to i32
  store i32 %72, ptr %1, align 4
  store i32 1, ptr %14, align 4
  br label %171

73:                                               ; preds = %43
  %74 = load i32, ptr %9, align 4, !tbaa !14
  %75 = sext i32 %74 to i64
  %76 = getelementptr inbounds [4 x ptr], ptr %5, i64 0, i64 %75
  %77 = load ptr, ptr %76, align 8, !tbaa !15
  %78 = load i32, ptr %9, align 4, !tbaa !14
  %79 = sext i32 %78 to i64
  %80 = getelementptr inbounds [4 x ptr], ptr %5, i64 0, i64 %79
  %81 = load ptr, ptr %80, align 8, !tbaa !15
  %82 = call i64 @strlen(ptr noundef %81) #11
  %83 = trunc i64 %82 to i32
  %84 = call i32 @wc_HmacUpdate(ptr noundef %2, ptr noundef %77, i32 noundef %83)
  store i32 %84, ptr %13, align 4, !tbaa !14
  %85 = load i32, ptr %13, align 4, !tbaa !14
  %86 = icmp ne i32 %85, 0
  br i1 %86, label %87, label %99

87:                                               ; preds = %73
  %88 = load i32, ptr %13, align 4, !tbaa !14
  %89 = sub nsw i32 0, %88
  %90 = zext i32 %89 to i64
  %91 = and i64 %90, 2047
  %92 = trunc i64 %91 to i32
  %93 = sext i32 %92 to i64
  %94 = mul nsw i64 %93, 100000
  %95 = add nsw i64 7203, %94
  %96 = add nsw i64 %95, 536870912
  %97 = sub nsw i64 0, %96
  %98 = trunc i64 %97 to i32
  store i32 %98, ptr %1, align 4
  store i32 1, ptr %14, align 4
  br label %171

99:                                               ; preds = %73
  %100 = getelementptr inbounds [64 x i8], ptr %3, i64 0, i64 0
  %101 = call i32 @wc_HmacFinal(ptr noundef %2, ptr noundef %100)
  store i32 %101, ptr %13, align 4, !tbaa !14
  %102 = load i32, ptr %13, align 4, !tbaa !14
  %103 = icmp ne i32 %102, 0
  br i1 %103, label %104, label %116

104:                                              ; preds = %99
  %105 = load i32, ptr %13, align 4, !tbaa !14
  %106 = sub nsw i32 0, %105
  %107 = zext i32 %106 to i64
  %108 = and i64 %107, 2047
  %109 = trunc i64 %108 to i32
  %110 = sext i32 %109 to i64
  %111 = mul nsw i64 %110, 100000
  %112 = add nsw i64 7206, %111
  %113 = add nsw i64 %112, 536870912
  %114 = sub nsw i64 0, %113
  %115 = trunc i64 %114 to i32
  store i32 %115, ptr %1, align 4
  store i32 1, ptr %14, align 4
  br label %171

116:                                              ; preds = %99
  %117 = getelementptr inbounds [64 x i8], ptr %3, i64 0, i64 0
  %118 = load i32, ptr %9, align 4, !tbaa !14
  %119 = load i32, ptr %12, align 4, !tbaa !14
  %120 = mul nsw i32 %118, %119
  %121 = load i32, ptr %11, align 4, !tbaa !14
  %122 = add nsw i32 %120, %121
  %123 = sext i32 %122 to i64
  %124 = getelementptr inbounds [16 x ptr], ptr %8, i64 0, i64 %123
  %125 = load ptr, ptr %124, align 8, !tbaa !15
  %126 = load i32, ptr %11, align 4, !tbaa !14
  %127 = sext i32 %126 to i64
  %128 = getelementptr inbounds [4 x i32], ptr %7, i64 0, i64 %127
  %129 = load i32, ptr %128, align 4, !tbaa !14
  %130 = sext i32 %129 to i64
  %131 = call i32 @memcmp(ptr noundef %117, ptr noundef %125, i64 noundef %130) #11
  %132 = icmp ne i32 %131, 0
  br i1 %132, label %133, label %134

133:                                              ; preds = %116
  store i32 -7208, ptr %1, align 4
  store i32 1, ptr %14, align 4
  br label %171

134:                                              ; preds = %116
  call void @wc_HmacFree(ptr noundef %2)
  %135 = load i32, ptr %9, align 4, !tbaa !14
  %136 = icmp sgt i32 %135, 0
  br i1 %136, label %137, label %138

137:                                              ; preds = %134
  br label %163

138:                                              ; preds = %134
  %139 = load i32, ptr %11, align 4, !tbaa !14
  %140 = sext i32 %139 to i64
  %141 = getelementptr inbounds [4 x i32], ptr %6, i64 0, i64 %140
  %142 = load i32, ptr %141, align 4, !tbaa !14
  %143 = call i32 @wc_HmacSizeByType(i32 noundef %142)
  store i32 %143, ptr %13, align 4, !tbaa !14
  %144 = load i32, ptr %13, align 4, !tbaa !14
  %145 = load i32, ptr %11, align 4, !tbaa !14
  %146 = sext i32 %145 to i64
  %147 = getelementptr inbounds [4 x i32], ptr %7, i64 0, i64 %146
  %148 = load i32, ptr %147, align 4, !tbaa !14
  %149 = icmp ne i32 %144, %148
  br i1 %149, label %150, label %162

150:                                              ; preds = %138
  %151 = load i32, ptr %13, align 4, !tbaa !14
  %152 = sub nsw i32 0, %151
  %153 = zext i32 %152 to i64
  %154 = and i64 %153, 2047
  %155 = trunc i64 %154 to i32
  %156 = sext i32 %155 to i64
  %157 = mul nsw i64 %156, 100000
  %158 = add nsw i64 7218, %157
  %159 = add nsw i64 %158, 536870912
  %160 = sub nsw i64 0, %159
  %161 = trunc i64 %160 to i32
  store i32 %161, ptr %1, align 4
  store i32 1, ptr %14, align 4
  br label %171

162:                                              ; preds = %138
  br label %163

163:                                              ; preds = %162, %137
  %164 = load i32, ptr %11, align 4, !tbaa !14
  %165 = add nsw i32 %164, 1
  store i32 %165, ptr %11, align 4, !tbaa !14
  br label %23, !llvm.loop !72

166:                                              ; preds = %23
  br label %167

167:                                              ; preds = %166
  %168 = load i32, ptr %9, align 4, !tbaa !14
  %169 = add nsw i32 %168, 1
  store i32 %169, ptr %9, align 4, !tbaa !14
  br label %18, !llvm.loop !73

170:                                              ; preds = %18
  store i32 0, ptr %1, align 4
  store i32 1, ptr %14, align 4
  br label %171

171:                                              ; preds = %170, %150, %133, %104, %87, %61, %31
  call void @llvm.lifetime.end.p0(i64 4, ptr %13) #10
  call void @llvm.lifetime.end.p0(i64 4, ptr %12) #10
  call void @llvm.lifetime.end.p0(i64 4, ptr %11) #10
  call void @llvm.lifetime.end.p0(i64 4, ptr %10) #10
  call void @llvm.lifetime.end.p0(i64 4, ptr %9) #10
  call void @llvm.lifetime.end.p0(i64 128, ptr %8) #10
  call void @llvm.lifetime.end.p0(i64 16, ptr %7) #10
  call void @llvm.lifetime.end.p0(i64 16, ptr %6) #10
  call void @llvm.lifetime.end.p0(i64 32, ptr %5) #10
  call void @llvm.lifetime.end.p0(i64 32, ptr %4) #10
  call void @llvm.lifetime.end.p0(i64 64, ptr %3) #10
  call void @llvm.lifetime.end.p0(i64 784, ptr %2) #10
  %172 = load i32, ptr %1, align 4
  ret i32 %172
}