; Function Attrs: nounwind uwtable
define dso_local range(i32 -741578130, 1) i32 @hmac_sha3_test() local_unnamed_addr #0 {
  %1 = alloca %struct.Hmac, align 16
  %2 = alloca [64 x i8], align 16
  call void @llvm.lifetime.start.p0(i64 784, ptr nonnull %1) #19
  call void @llvm.lifetime.start.p0(i64 64, ptr nonnull %2) #19
  br label %.preheader

.preheader:                                       ; preds = %0, %.split88.us
  %indvars.iv143 = phi i64 [ 0, %0 ], [ %indvars.iv.next144, %.split88.us ]
  %3 = getelementptr inbounds nuw [4 x ptr], ptr @__const.hmac_sha3_test.key, i64 0, i64 %indvars.iv143
  %4 = getelementptr inbounds nuw [4 x ptr], ptr @__const.hmac_sha3_test.input, i64 0, i64 %indvars.iv143
  %5 = shl nuw nsw i64 %indvars.iv143, 2
  %.not39 = icmp eq i64 %indvars.iv143, 0
  br i1 %.not39, label %.preheader.split.us, label %.preheader.split

.preheader.split.us:                              ; preds = %.preheader, %29
  %indvars.iv139 = phi i64 [ %indvars.iv.next140, %29 ], [ 0, %.preheader ]
  %6 = call i32 @wc_HmacInit(ptr noundef nonnull %1, ptr noundef null, i32 noundef -2) #19
  %.not.us = icmp eq i32 %6, 0
  br i1 %.not.us, label %7, label %.split.us

7:                                                ; preds = %.preheader.split.us
  %8 = getelementptr inbounds nuw [4 x i32], ptr @__const.hmac_sha3_test.hashType, i64 0, i64 %indvars.iv139
  %9 = load i32, ptr %8, align 4, !tbaa !22
  %10 = load ptr, ptr %3, align 8, !tbaa !29
  %11 = call i64 @strlen(ptr noundef nonnull dereferenceable(1) %10) #20
  %12 = trunc i64 %11 to i32
  %13 = call i32 @wc_HmacSetKey(ptr noundef nonnull %1, i32 noundef %9, ptr noundef nonnull %10, i32 noundef %12) #19
  %.not35.us = icmp eq i32 %13, 0
  br i1 %.not35.us, label %14, label %.split76.us

14:                                               ; preds = %7
  %15 = load ptr, ptr %4, align 8, !tbaa !29
  %16 = call i64 @strlen(ptr noundef nonnull dereferenceable(1) %15) #20
  %17 = trunc i64 %16 to i32
  %18 = call i32 @wc_HmacUpdate(ptr noundef nonnull %1, ptr noundef nonnull %15, i32 noundef %17) #19
  %.not36.us = icmp eq i32 %18, 0
  br i1 %.not36.us, label %19, label %.split79.us

19:                                               ; preds = %14
  %20 = call i32 @wc_HmacFinal(ptr noundef nonnull %1, ptr noundef nonnull %2) #19
  %.not37.us = icmp eq i32 %20, 0
  br i1 %.not37.us, label %21, label %.split82.us

21:                                               ; preds = %19
  %22 = getelementptr inbounds nuw [16 x ptr], ptr @__const.hmac_sha3_test.output, i64 0, i64 %indvars.iv139
  %23 = load ptr, ptr %22, align 8, !tbaa !29
  %24 = getelementptr inbounds nuw [4 x i32], ptr @__const.hmac_sha3_test.hashSz, i64 0, i64 %indvars.iv139
  %25 = load i32, ptr %24, align 4, !tbaa !22
  %26 = sext i32 %25 to i64
  %bcmp.us = call i32 @bcmp(ptr nonnull %2, ptr %23, i64 %26)
  %.not38.us = icmp eq i32 %bcmp.us, 0
  br i1 %.not38.us, label %27, label %.loopexit

27:                                               ; preds = %21
  call void @wc_HmacFree(ptr noundef nonnull %1) #19
  %28 = call i32 @wc_HmacSizeByType(i32 noundef %9) #19
  %.not40.us = icmp eq i32 %28, %25
  br i1 %.not40.us, label %29, label %.split85.us

29:                                               ; preds = %27
  %indvars.iv.next140 = add nuw nsw i64 %indvars.iv139, 1
  %exitcond142.not = icmp eq i64 %indvars.iv.next140, 4
  br i1 %exitcond142.not, label %.split88.us, label %.preheader.split.us, !llvm.loop !83

.preheader.split:                                 ; preds = %.preheader, %64
  %indvars.iv = phi i64 [ %indvars.iv.next, %64 ], [ 0, %.preheader ]
  %30 = call i32 @wc_HmacInit(ptr noundef nonnull %1, ptr noundef null, i32 noundef -2) #19
  %.not = icmp eq i32 %30, 0
  br i1 %.not, label %34, label %.split.us

.split.us:                                        ; preds = %.preheader.split, %.preheader.split.us
  %.us-phi = phi i32 [ %6, %.preheader.split.us ], [ %30, %.preheader.split ]
  %31 = sub nsw i32 0, %.us-phi
  %32 = and i32 %31, 2047
  %narrow.neg54 = mul nsw i32 %32, -100000
  %33 = add nsw i32 %narrow.neg54, -536878106
  br label %.loopexit

34:                                               ; preds = %.preheader.split
  %35 = getelementptr inbounds nuw [4 x i32], ptr @__const.hmac_sha3_test.hashType, i64 0, i64 %indvars.iv
  %36 = load i32, ptr %35, align 4, !tbaa !22
  %37 = load ptr, ptr %3, align 8, !tbaa !29
  %38 = call i64 @strlen(ptr noundef nonnull dereferenceable(1) %37) #20
  %39 = trunc i64 %38 to i32
  %40 = call i32 @wc_HmacSetKey(ptr noundef nonnull %1, i32 noundef %36, ptr noundef nonnull %37, i32 noundef %39) #19
  %.not35 = icmp eq i32 %40, 0
  br i1 %.not35, label %44, label %.split76.us

.split76.us:                                      ; preds = %34, %7
  %.us-phi77 = phi i32 [ %13, %7 ], [ %40, %34 ]
  %41 = sub nsw i32 0, %.us-phi77
  %42 = and i32 %41, 2047
  %narrow.neg51 = mul nsw i32 %42, -100000
  %43 = add nsw i32 %narrow.neg51, -536878111
  br label %.loopexit

44:                                               ; preds = %34
  %45 = load ptr, ptr %4, align 8, !tbaa !29
  %46 = call i64 @strlen(ptr noundef nonnull dereferenceable(1) %45) #20
  %47 = trunc i64 %46 to i32
  %48 = call i32 @wc_HmacUpdate(ptr noundef nonnull %1, ptr noundef nonnull %45, i32 noundef %47) #19
  %.not36 = icmp eq i32 %48, 0
  br i1 %.not36, label %52, label %.split79.us

.split79.us:                                      ; preds = %44, %14
  %.us-phi80 = phi i32 [ %18, %14 ], [ %48, %44 ]
  %49 = sub nsw i32 0, %.us-phi80
  %50 = and i32 %49, 2047
  %narrow.neg48 = mul nsw i32 %50, -100000
  %51 = add nsw i32 %narrow.neg48, -536878115
  br label %.loopexit

52:                                               ; preds = %44
  %53 = call i32 @wc_HmacFinal(ptr noundef nonnull %1, ptr noundef nonnull %2) #19
  %.not37 = icmp eq i32 %53, 0
  br i1 %.not37, label %57, label %.split82.us

.split82.us:                                      ; preds = %52, %19
  %.us-phi83 = phi i32 [ %20, %19 ], [ %53, %52 ]
  %54 = sub nsw i32 0, %.us-phi83
  %55 = and i32 %54, 2047
  %narrow.neg45 = mul nsw i32 %55, -100000
  %56 = add nsw i32 %narrow.neg45, -536878118
  br label %.loopexit

57:                                               ; preds = %52
  %58 = add nuw nsw i64 %indvars.iv, %5
  %59 = getelementptr inbounds nuw [16 x ptr], ptr @__const.hmac_sha3_test.output, i64 0, i64 %58
  %60 = load ptr, ptr %59, align 8, !tbaa !29
  %61 = getelementptr inbounds nuw [4 x i32], ptr @__const.hmac_sha3_test.hashSz, i64 0, i64 %indvars.iv
  %62 = load i32, ptr %61, align 4, !tbaa !22
  %63 = sext i32 %62 to i64
  %bcmp = call i32 @bcmp(ptr nonnull %2, ptr %60, i64 %63)
  %.not38 = icmp eq i32 %bcmp, 0
  br i1 %.not38, label %64, label %.loopexit

64:                                               ; preds = %57
  call void @wc_HmacFree(ptr noundef nonnull %1) #19
  %indvars.iv.next = add nuw nsw i64 %indvars.iv, 1
  %exitcond.not = icmp eq i64 %indvars.iv.next, 4
  br i1 %exitcond.not, label %.split88.us, label %.preheader.split, !llvm.loop !83

.split85.us:                                      ; preds = %27
  %65 = sub nsw i32 0, %28
  %66 = and i32 %65, 2047
  %narrow.neg = mul nsw i32 %66, -100000
  %67 = add nsw i32 %narrow.neg, -536878130
  br label %.loopexit

.split88.us:                                      ; preds = %64, %29
  %indvars.iv.next144 = add nuw nsw i64 %indvars.iv143, 1
  %exitcond146.not = icmp eq i64 %indvars.iv.next144, 4
  br i1 %exitcond146.not, label %.loopexit, label %.preheader, !llvm.loop !84

.loopexit:                                        ; preds = %.split88.us, %57, %21, %.split85.us, %.split82.us, %.split79.us, %.split76.us, %.split.us
  %.0 = phi i32 [ %33, %.split.us ], [ %43, %.split76.us ], [ %51, %.split79.us ], [ %56, %.split82.us ], [ %67, %.split85.us ], [ -7208, %21 ], [ -7208, %57 ], [ 0, %.split88.us ]
  call void @llvm.lifetime.end.p0(i64 64, ptr nonnull %2) #19
  call void @llvm.lifetime.end.p0(i64 784, ptr nonnull %1) #19
  ret i32 %.0
}